target datalayout = "e-m:e-p270:32:32-p271:32:32-p272:64:64-i64:64-i128:128-f80:128-n8:16:32:64-S128"
target triple = "x86_64-pc-linux-gnu"

%struct.GCRef = type { i64 }
%struct.CTState = type { ptr, i32, i32, ptr, ptr, ptr, %struct.CCallback, [128 x i16] }
%struct.CCallback = type { [8 x %union.FPRCBArg], [8 x i64], ptr, ptr, ptr, i32, i32, i32 }
%union.FPRCBArg = type { double }
%struct.CPState = type { i32, i32, %struct.CPValue, ptr, ptr, ptr, %struct.SBuf, ptr, ptr, ptr, ptr, i32, i32, i32, i32, [7 x i8], i8 }
%struct.CPValue = type { %union.anon, i32 }
%union.anon = type { i32 }
%struct.SBuf = type { ptr, ptr, ptr, %struct.MRef }
%struct.MRef = type { i64 }
%struct.CType = type { i32, i32, i16, i16, %struct.GCRef }

; Function Attrs: alwaysinline nounwind uwtable
define internal i32 @ctype_check(ptr noundef %0, i32 noundef %1) #6 {
  %3 = alloca ptr, align 8
  %4 = alloca i32, align 4
  store ptr %0, ptr %3, align 8, !tbaa !109
  store i32 %1, ptr %4, align 4, !tbaa !11
  %5 = load i32, ptr %4, align 4, !tbaa !11
  ret i32 %5
}

; Function Attrs: alwaysinline nounwind uwtable
define internal ptr @ctype_child(ptr noundef %0, ptr noundef %1) #6 {
  %3 = alloca ptr, align 8
  %4 = alloca ptr, align 8
  store ptr %0, ptr %3, align 8, !tbaa !109
  store ptr %1, ptr %4, align 8, !tbaa !32
  %5 = load ptr, ptr %3, align 8, !tbaa !109
  %6 = load ptr, ptr %4, align 8, !tbaa !32
  %7 = getelementptr inbounds nuw %struct.CType, ptr %6, i32 0, i32 0
  %8 = load i32, ptr %7, align 8, !tbaa !60
  %9 = and i32 %8, 65535
  %10 = call ptr @ctype_get(ptr noundef %5, i32 noundef %9)
  ret ptr %10
}

; Function Attrs: alwaysinline nounwind uwtable
define internal ptr @ctype_get(ptr noundef %0, i32 noundef %1) #6 {
  %3 = alloca ptr, align 8
  %4 = alloca i32, align 4
  store ptr %0, ptr %3, align 8, !tbaa !109
  store i32 %1, ptr %4, align 4, !tbaa !11
  %5 = load ptr, ptr %3, align 8, !tbaa !109
  %6 = getelementptr inbounds nuw %struct.CTState, ptr %5, i32 0, i32 0
  %7 = load ptr, ptr %6, align 8, !tbaa !88
  %8 = load ptr, ptr %3, align 8, !tbaa !109
  %9 = load i32, ptr %4, align 4, !tbaa !11
  %10 = call i32 @ctype_check(ptr noundef %8, i32 noundef %9)
  %11 = zext i32 %10 to i64
  %12 = getelementptr inbounds nuw %struct.CType, ptr %7, i64 %11
  ret ptr %12
}

; Function Attrs: nounwind uwtable
define internal void @cp_expr_unary(ptr noundef %0, ptr noundef %1) #0 {
  %3 = alloca ptr, align 8
  %4 = alloca ptr, align 8
  store ptr %0, ptr %3, align 8, !tbaa !20
  store ptr %1, ptr %4, align 8, !tbaa !129
  %5 = load ptr, ptr %3, align 8, !tbaa !20
  %6 = getelementptr inbounds nuw %struct.CPState, ptr %5, i32 0, i32 12
  %7 = load i32, ptr %6, align 4, !tbaa !54
  %8 = add nsw i32 %7, 1
  store i32 %8, ptr %6, align 4, !tbaa !54
  %9 = icmp sgt i32 %8, 20
  br i1 %9, label %10, label %12

10:                                               ; preds = %2
  %11 = load ptr, ptr %3, align 8, !tbaa !20
  call void @cp_err(ptr noundef %11, i32 noundef 2216) #15
  unreachable

12:                                               ; preds = %2
  %13 = load ptr, ptr %3, align 8, !tbaa !20
  %14 = load ptr, ptr %4, align 8, !tbaa !129
  call void @cp_expr_prefix(ptr noundef %13, ptr noundef %14)
  %15 = load ptr, ptr %3, align 8, !tbaa !20
  %16 = load ptr, ptr %4, align 8, !tbaa !129
  call void @cp_expr_postfix(ptr noundef %15, ptr noundef %16)
  %17 = load ptr, ptr %3, align 8, !tbaa !20
  %18 = getelementptr inbounds nuw %struct.CPState, ptr %17, i32 0, i32 12
  %19 = load i32, ptr %18, align 4, !tbaa !54
  %20 = add nsw i32 %19, -1
  store i32 %20, ptr %18, align 4, !tbaa !54
  ret void
}

; Function Attrs: alwaysinline nounwind uwtable
define internal ptr @ctype_raw(ptr noundef %0, i32 noundef %1) #6 {
  %3 = alloca ptr, align 8
  %4 = alloca i32, align 4
  %5 = alloca ptr, align 8
  store ptr %0, ptr %3, align 8, !tbaa !109
  store i32 %1, ptr %4, align 4, !tbaa !11
  call void @llvm.lifetime.start.p0(i64 8, ptr %5) #13
  %6 = load ptr, ptr %3, align 8, !tbaa !109
  %7 = load i32, ptr %4, align 4, !tbaa !11
  %8 = call ptr @ctype_get(ptr noundef %6, i32 noundef %7)
  store ptr %8, ptr %5, align 8, !tbaa !32
  br label %9

9:                                                ; preds = %15, %2
  %10 = load ptr, ptr %5, align 8, !tbaa !32
  %11 = getelementptr inbounds nuw %struct.CType, ptr %10, i32 0, i32 0
  %12 = load i32, ptr %11, align 8, !tbaa !60
  %13 = lshr i32 %12, 28
  %14 = icmp eq i32 %13, 8
  br i1 %14, label %15, label %19

15:                                               ; preds = %9
  %16 = load ptr, ptr %3, align 8, !tbaa !109
  %17 = load ptr, ptr %5, align 8, !tbaa !32
  %18 = call ptr @ctype_child(ptr noundef %16, ptr noundef %17)
  store ptr %18, ptr %5, align 8, !tbaa !32
  br label %9, !llvm.loop !131

19:                                               ; preds = %9
  %20 = load ptr, ptr %5, align 8, !tbaa !32
  call void @llvm.lifetime.end.p0(i64 8, ptr %5) #13
  ret ptr %20
}

; Function Attrs: nounwind uwtable
define internal void @cp_expr_sub(ptr noundef %0, ptr noundef %1, i32 noundef %2) #0 {
  %4 = alloca ptr, align 8
  %5 = alloca ptr, align 8
  %6 = alloca i32, align 4
  store ptr %0, ptr %4, align 8, !tbaa !20
  store ptr %1, ptr %5, align 8, !tbaa !129
  store i32 %2, ptr %6, align 4, !tbaa !11
  %7 = load ptr, ptr %4, align 8, !tbaa !20
  %8 = load ptr, ptr %5, align 8, !tbaa !129
  call void @cp_expr_unary(ptr noundef %7, ptr noundef %8)
  %9 = load ptr, ptr %4, align 8, !tbaa !20
  %10 = load ptr, ptr %5, align 8, !tbaa !129
  %11 = load i32, ptr %6, align 4, !tbaa !11
  call void @cp_expr_infix(ptr noundef %9, ptr noundef %10, i32 noundef %11)
  ret void
}

; Function Attrs: nounwind uwtable
define internal void @cp_expr_kint(ptr noundef %0, ptr noundef %1) #0 {
  %3 = alloca ptr, align 8
  %4 = alloca ptr, align 8
  %5 = alloca ptr, align 8
  store ptr %0, ptr %3, align 8, !tbaa !20
  store ptr %1, ptr %4, align 8, !tbaa !129
  call void @llvm.lifetime.start.p0(i64 8, ptr %5) #13
  %6 = load ptr, ptr %3, align 8, !tbaa !20
  %7 = load ptr, ptr %4, align 8, !tbaa !129
  call void @cp_expr_sub(ptr noundef %6, ptr noundef %7, i32 noundef 0)
  %8 = load ptr, ptr %3, align 8, !tbaa !20
  %9 = getelementptr inbounds nuw %struct.CPState, ptr %8, i32 0, i32 8
  %10 = load ptr, ptr %9, align 8, !tbaa !22
  %11 = load ptr, ptr %4, align 8, !tbaa !129
  %12 = getelementptr inbounds nuw %struct.CPValue, ptr %11, i32 0, i32 1
  %13 = load i32, ptr %12, align 4, !tbaa !122
  %14 = call ptr @ctype_raw(ptr noundef %10, i32 noundef %13)
  store ptr %14, ptr %5, align 8, !tbaa !32
  %15 = load ptr, ptr %5, align 8, !tbaa !32
  %16 = getelementptr inbounds nuw %struct.CType, ptr %15, i32 0, i32 0
  %17 = load i32, ptr %16, align 8, !tbaa !60
  %18 = and i32 %17, -67108864
  %19 = icmp eq i32 %18, 0
  br i1 %19, label %22, label %20

20:                                               ; preds = %2
  %21 = load ptr, ptr %3, align 8, !tbaa !20
  call void @cp_err(ptr noundef %21, i32 noundef 537) #15
  unreachable

22:                                               ; preds = %2
  call void @llvm.lifetime.end.p0(i64 8, ptr %5) #13
  ret void
}

; Function Attrs: nounwind uwtable
define internal i32 @cp_expr_ksize(ptr noundef %0) #0 {
  %2 = alloca ptr, align 8
  %3 = alloca %struct.CPValue, align 4
  store ptr %0, ptr %2, align 8, !tbaa !20
  call void @llvm.lifetime.start.p0(i64 8, ptr %3) #13
  %4 = load ptr, ptr %2, align 8, !tbaa !20
  call void @cp_expr_kint(ptr noundef %4, ptr noundef %3)
  %5 = getelementptr inbounds nuw %struct.CPValue, ptr %3, i32 0, i32 0
  %6 = load i32, ptr %5, align 4, !tbaa !13
  %7 = icmp uge i32 %6, -2147483648
  br i1 %7, label %8, label %10

8:                                                ; preds = %1
  %9 = load ptr, ptr %2, align 8, !tbaa !20
  call void @cp_err(ptr noundef %9, i32 noundef 3031) #15
  unreachable

10:                                               ; preds = %1
  %11 = getelementptr inbounds nuw %struct.CPValue, ptr %3, i32 0, i32 0
  %12 = load i32, ptr %11, align 4, !tbaa !13
  call void @llvm.lifetime.end.p0(i64 8, ptr %3) #13
  ret i32 %12
}