; Function Attrs: nounwind uwtable
define internal fastcc range(i32 0, -2147483648) i32 @cp_expr_ksize(ptr noundef %0) unnamed_addr #2 {
  %2 = alloca %struct.CPValue, align 4
  call void @llvm.lifetime.start.p0(i64 8, ptr nonnull %2) #15
  %3 = getelementptr inbounds nuw i8, ptr %0, i64 108
  %4 = load i32, ptr %3, align 4, !tbaa !58
  %5 = add nsw i32 %4, 1
  store i32 %5, ptr %3, align 4, !tbaa !58
  %6 = icmp sgt i32 %4, 19
  br i1 %6, label %7, label %cp_expr_sub.exit

7:                                                ; preds = %1
  tail call fastcc void @cp_err(ptr noundef nonnull %0, i32 noundef 2216) #16
  unreachable

cp_expr_sub.exit:                                 ; preds = %1
  call fastcc void @cp_expr_prefix(ptr noundef nonnull %0, ptr noundef nonnull %2)
  call fastcc void @cp_expr_postfix(ptr noundef nonnull %0, ptr noundef nonnull %2)
  %8 = load i32, ptr %3, align 4, !tbaa !58
  %9 = add nsw i32 %8, -1
  store i32 %9, ptr %3, align 4, !tbaa !58
  call fastcc void @cp_expr_infix(ptr noundef nonnull %0, ptr noundef nonnull %2, i32 noundef 0)
  %10 = getelementptr inbounds nuw i8, ptr %0, i64 80
  %11 = load ptr, ptr %10, align 8, !tbaa !14
  %12 = getelementptr inbounds nuw i8, ptr %2, i64 4
  %13 = load i32, ptr %12, align 4, !tbaa !114
  %14 = load ptr, ptr %11, align 8, !tbaa !74
  br label %15

15:                                               ; preds = %15, %cp_expr_sub.exit
  %.pn.in = phi i32 [ %13, %cp_expr_sub.exit ], [ %18, %15 ]
  %.pn = zext i32 %.pn.in to i64
  %.0.i.i = getelementptr inbounds nuw %struct.CType, ptr %14, i64 %.pn
  %16 = load i32, ptr %.0.i.i, align 8, !tbaa !71
  %17 = icmp slt i32 %16, -1879048192
  %18 = and i32 %16, 65535
  br i1 %17, label %15, label %ctype_raw.exit.i, !llvm.loop !115

ctype_raw.exit.i:                                 ; preds = %15
  %19 = icmp ult i32 %16, 67108864
  br i1 %19, label %cp_expr_kint.exit, label %20

20:                                               ; preds = %ctype_raw.exit.i
  tail call fastcc void @cp_err(ptr noundef nonnull %0, i32 noundef 537) #16
  unreachable

cp_expr_kint.exit:                                ; preds = %ctype_raw.exit.i
  %21 = load i32, ptr %2, align 4, !tbaa !4
  %22 = icmp slt i32 %21, 0
  br i1 %22, label %23, label %24

23:                                               ; preds = %cp_expr_kint.exit
  tail call fastcc void @cp_err(ptr noundef nonnull %0, i32 noundef 3031) #16
  unreachable

24:                                               ; preds = %cp_expr_kint.exit
  call void @llvm.lifetime.end.p0(i64 8, ptr nonnull %2) #15
  ret i32 %21
}